; Function Attrs: mustprogress uwtable
define hidden void @_ZN5ceres8internal24ChangeNumThreadsIfNeededEPNS_6Solver7OptionsE(ptr noundef captures(none) %0) local_unnamed_addr #4 personality ptr @__gxx_personality_v0 {
  %2 = alloca i32, align 4
  %3 = alloca i32, align 4
  %4 = alloca %"class.absl::lts_20240116::log_internal::LogMessage", align 8
  %5 = getelementptr inbounds nuw i8, ptr %0, i64 120
  %6 = load i32, ptr %5, align 8, !tbaa !16
  %7 = icmp eq i32 %6, 1
  br i1 %7, label %20, label %8

8:                                                ; preds = %1
  %9 = tail call noundef i32 @_ZN5ceres8internal10ThreadPool22MaxNumThreadsAvailableEv()
  %10 = load i32, ptr %5, align 8, !tbaa !16
  %11 = icmp sgt i32 %10, %9
  br i1 %11, label %12, label %20

12:                                               ; preds = %8
  call void @llvm.lifetime.start.p0(i64 16, ptr nonnull %4) #26
  call void @_ZN4absl12lts_2024011612log_internal10LogMessageC1EPKciNS2_10WarningTagE(ptr noundef nonnull align 8 dereferenceable(16) %4, ptr noundef nonnull @.str, i32 noundef 68) #27
  invoke void @_ZN4absl12lts_2024011612log_internal10LogMessage19CopyToEncodedBufferILNS2_10StringTypeE0EEEvSt17basic_string_viewIcSt11char_traitsIcEE(ptr noundef nonnull align 8 dereferenceable(16) %4, i64 31, ptr nonnull @.str.5)
          to label %_ZN4absl12lts_2024011612log_internal10LogMessagelsILi32EEERS2_RAT__Kc.exit unwind label %18

_ZN4absl12lts_2024011612log_internal10LogMessagelsILi32EEERS2_RAT__Kc.exit: ; preds = %12
  %13 = load i32, ptr %5, align 8, !tbaa !16
  call void @llvm.lifetime.start.p0(i64 4, ptr nonnull %3)
  store i32 %13, ptr %3, align 4, !tbaa !61
  %14 = invoke noundef nonnull align 8 dereferenceable(16) ptr @_ZN4absl12lts_2024011612log_internal10LogMessagelsIiTnNSt9enable_ifIXntsr4absl16HasAbslStringifyIT_EE5valueEiE4typeELi0EEERS2_RKS5_(ptr noundef nonnull align 8 dereferenceable(16) %4, ptr noundef nonnull align 4 dereferenceable(4) %3)
          to label %15 unwind label %18

15:                                               ; preds = %_ZN4absl12lts_2024011612log_internal10LogMessagelsILi32EEERS2_RAT__Kc.exit
  call void @llvm.lifetime.end.p0(i64 4, ptr nonnull %3)
  invoke void @_ZN4absl12lts_2024011612log_internal10LogMessage19CopyToEncodedBufferILNS2_10StringTypeE0EEEvSt17basic_string_viewIcSt11char_traitsIcEE(ptr noundef nonnull align 8 dereferenceable(16) %14, i64 58, ptr nonnull @.str.6)
          to label %_ZN4absl12lts_2024011612log_internal10LogMessagelsILi59EEERS2_RAT__Kc.exit unwind label %18

_ZN4absl12lts_2024011612log_internal10LogMessagelsILi59EEERS2_RAT__Kc.exit: ; preds = %15
  invoke void @_ZN4absl12lts_2024011612log_internal10LogMessage19CopyToEncodedBufferILNS2_10StringTypeE0EEEvSt17basic_string_viewIcSt11char_traitsIcEE(ptr noundef nonnull align 8 dereferenceable(16) %14, i64 19, ptr nonnull @.str.7)
          to label %_ZN4absl12lts_2024011612log_internal10LogMessagelsILi20EEERS2_RAT__Kc.exit unwind label %18

_ZN4absl12lts_2024011612log_internal10LogMessagelsILi20EEERS2_RAT__Kc.exit: ; preds = %_ZN4absl12lts_2024011612log_internal10LogMessagelsILi59EEERS2_RAT__Kc.exit
  call void @llvm.lifetime.start.p0(i64 4, ptr nonnull %2)
  store i32 %9, ptr %2, align 4, !tbaa !61
  %16 = invoke noundef nonnull align 8 dereferenceable(16) ptr @_ZN4absl12lts_2024011612log_internal10LogMessagelsIiTnNSt9enable_ifIXntsr4absl16HasAbslStringifyIT_EE5valueEiE4typeELi0EEERS2_RKS5_(ptr noundef nonnull align 8 dereferenceable(16) %14, ptr noundef nonnull align 4 dereferenceable(4) %2)
          to label %17 unwind label %18

17:                                               ; preds = %_ZN4absl12lts_2024011612log_internal10LogMessagelsILi20EEERS2_RAT__Kc.exit
  call void @llvm.lifetime.end.p0(i64 4, ptr nonnull %2)
  invoke void @_ZN4absl12lts_2024011612log_internal10LogMessage19CopyToEncodedBufferILNS2_10StringTypeE0EEEvSt17basic_string_viewIcSt11char_traitsIcEE(ptr noundef nonnull align 8 dereferenceable(16) %16, i64 40, ptr nonnull @.str.8)
          to label %_ZN4absl12lts_2024011612log_internal10LogMessagelsILi41EEERS2_RAT__Kc.exit unwind label %18

_ZN4absl12lts_2024011612log_internal10LogMessagelsILi41EEERS2_RAT__Kc.exit: ; preds = %17
  call void @_ZN4absl12lts_2024011612log_internal10LogMessageD1Ev(ptr noundef nonnull align 8 dereferenceable(16) %4) #30
  call void @llvm.lifetime.end.p0(i64 16, ptr nonnull %4) #26
  store i32 %9, ptr %5, align 8, !tbaa !16
  br label %20

18:                                               ; preds = %17, %_ZN4absl12lts_2024011612log_internal10LogMessagelsILi20EEERS2_RAT__Kc.exit, %_ZN4absl12lts_2024011612log_internal10LogMessagelsILi59EEERS2_RAT__Kc.exit, %15, %_ZN4absl12lts_2024011612log_internal10LogMessagelsILi32EEERS2_RAT__Kc.exit, %12
  %19 = landingpad { ptr, i32 }
          cleanup
  call void @_ZN4absl12lts_2024011612log_internal10LogMessageD1Ev(ptr noundef nonnull align 8 dereferenceable(16) %4) #30
  call void @llvm.lifetime.end.p0(i64 16, ptr nonnull %4) #26
  resume { ptr, i32 } %19

20:                                               ; preds = %8, %_ZN4absl12lts_2024011612log_internal10LogMessagelsILi41EEERS2_RAT__Kc.exit, %1
  ret void
}